target datalayout = "e-m:e-p270:32:32-p271:32:32-p272:64:64-i64:64-i128:128-f80:128-n8:16:32:64-S128"
target triple = "x86_64-pc-linux-gnu"

%"class.pxrInternal_v0_24__pxrReserved__::GfMatrix4f" = type { %"class.pxrInternal_v0_24__pxrReserved__::GfMatrixData" }
%"class.pxrInternal_v0_24__pxrReserved__::GfMatrixData" = type { [16 x float] }

; Function Attrs: mustprogress nounwind uwtable
define linkonce_odr noundef ptr @_ZN32pxrInternal_v0_24__pxrReserved__12GfMatrixDataIfLi4ELi4EEixEi(ptr noundef nonnull align 4 dereferenceable(64) %0, i32 noundef %1) #2 comdat align 2 {
  %3 = alloca ptr, align 8
  %4 = alloca i32, align 4
  store ptr %0, ptr %3, align 8
  store i32 %1, ptr %4, align 4
  %5 = load ptr, ptr %3, align 8
  %6 = getelementptr inbounds nuw %"class.pxrInternal_v0_24__pxrReserved__::GfMatrixData", ptr %5, i32 0, i32 0
  %7 = getelementptr inbounds [16 x float], ptr %6, i64 0, i64 0
  %8 = load i32, ptr %4, align 4
  %9 = mul nsw i32 %8, 4
  %10 = sext i32 %9 to i64
  %11 = getelementptr inbounds float, ptr %7, i64 %10
  ret ptr %11
}

; Function Attrs: mustprogress uwtable
define noundef nonnull align 4 dereferenceable(64) ptr @_ZN32pxrInternal_v0_24__pxrReserved__10GfMatrix4fmLEd(ptr noundef nonnull align 4 dereferenceable(64) %0, double noundef %1) #0 align 2 {
  %3 = alloca ptr, align 8
  %4 = alloca double, align 8
  store ptr %0, ptr %3, align 8
  store double %1, ptr %4, align 8
  %5 = load ptr, ptr %3, align 8
  %6 = load double, ptr %4, align 8
  %7 = getelementptr inbounds nuw %"class.pxrInternal_v0_24__pxrReserved__::GfMatrix4f", ptr %5, i32 0, i32 0
  %8 = call noundef ptr @_ZN32pxrInternal_v0_24__pxrReserved__12GfMatrixDataIfLi4ELi4EEixEi(ptr noundef nonnull align 4 dereferenceable(64) %7, i32 noundef 0)
  %9 = getelementptr inbounds float, ptr %8, i64 0
  %10 = load float, ptr %9, align 4
  %11 = fpext float %10 to double
  %12 = fmul double %11, %6
  %13 = fptrunc double %12 to float
  store float %13, ptr %9, align 4
  %14 = load double, ptr %4, align 8
  %15 = getelementptr inbounds nuw %"class.pxrInternal_v0_24__pxrReserved__::GfMatrix4f", ptr %5, i32 0, i32 0
  %16 = call noundef ptr @_ZN32pxrInternal_v0_24__pxrReserved__12GfMatrixDataIfLi4ELi4EEixEi(ptr noundef nonnull align 4 dereferenceable(64) %15, i32 noundef 0)
  %17 = getelementptr inbounds float, ptr %16, i64 1
  %18 = load float, ptr %17, align 4
  %19 = fpext float %18 to double
  %20 = fmul double %19, %14
  %21 = fptrunc double %20 to float
  store float %21, ptr %17, align 4
  %22 = load double, ptr %4, align 8
  %23 = getelementptr inbounds nuw %"class.pxrInternal_v0_24__pxrReserved__::GfMatrix4f", ptr %5, i32 0, i32 0
  %24 = call noundef ptr @_ZN32pxrInternal_v0_24__pxrReserved__12GfMatrixDataIfLi4ELi4EEixEi(ptr noundef nonnull align 4 dereferenceable(64) %23, i32 noundef 0)
  %25 = getelementptr inbounds float, ptr %24, i64 2
  %26 = load float, ptr %25, align 4
  %27 = fpext float %26 to double
  %28 = fmul double %27, %22
  %29 = fptrunc double %28 to float
  store float %29, ptr %25, align 4
  %30 = load double, ptr %4, align 8
  %31 = getelementptr inbounds nuw %"class.pxrInternal_v0_24__pxrReserved__::GfMatrix4f", ptr %5, i32 0, i32 0
  %32 = call noundef ptr @_ZN32pxrInternal_v0_24__pxrReserved__12GfMatrixDataIfLi4ELi4EEixEi(ptr noundef nonnull align 4 dereferenceable(64) %31, i32 noundef 0)
  %33 = getelementptr inbounds float, ptr %32, i64 3
  %34 = load float, ptr %33, align 4
  %35 = fpext float %34 to double
  %36 = fmul double %35, %30
  %37 = fptrunc double %36 to float
  store float %37, ptr %33, align 4
  %38 = load double, ptr %4, align 8
  %39 = getelementptr inbounds nuw %"class.pxrInternal_v0_24__pxrReserved__::GfMatrix4f", ptr %5, i32 0, i32 0
  %40 = call noundef ptr @_ZN32pxrInternal_v0_24__pxrReserved__12GfMatrixDataIfLi4ELi4EEixEi(ptr noundef nonnull align 4 dereferenceable(64) %39, i32 noundef 1)
  %41 = getelementptr inbounds float, ptr %40, i64 0
  %42 = load float, ptr %41, align 4
  %43 = fpext float %42 to double
  %44 = fmul double %43, %38
  %45 = fptrunc double %44 to float
  store float %45, ptr %41, align 4
  %46 = load double, ptr %4, align 8
  %47 = getelementptr inbounds nuw %"class.pxrInternal_v0_24__pxrReserved__::GfMatrix4f", ptr %5, i32 0, i32 0
  %48 = call noundef ptr @_ZN32pxrInternal_v0_24__pxrReserved__12GfMatrixDataIfLi4ELi4EEixEi(ptr noundef nonnull align 4 dereferenceable(64) %47, i32 noundef 1)
  %49 = getelementptr inbounds float, ptr %48, i64 1
  %50 = load float, ptr %49, align 4
  %51 = fpext float %50 to double
  %52 = fmul double %51, %46
  %53 = fptrunc double %52 to float
  store float %53, ptr %49, align 4
  %54 = load double, ptr %4, align 8
  %55 = getelementptr inbounds nuw %"class.pxrInternal_v0_24__pxrReserved__::GfMatrix4f", ptr %5, i32 0, i32 0
  %56 = call noundef ptr @_ZN32pxrInternal_v0_24__pxrReserved__12GfMatrixDataIfLi4ELi4EEixEi(ptr noundef nonnull align 4 dereferenceable(64) %55, i32 noundef 1)
  %57 = getelementptr inbounds float, ptr %56, i64 2
  %58 = load float, ptr %57, align 4
  %59 = fpext float %58 to double
  %60 = fmul double %59, %54
  %61 = fptrunc double %60 to float
  store float %61, ptr %57, align 4
  %62 = load double, ptr %4, align 8
  %63 = getelementptr inbounds nuw %"class.pxrInternal_v0_24__pxrReserved__::GfMatrix4f", ptr %5, i32 0, i32 0
  %64 = call noundef ptr @_ZN32pxrInternal_v0_24__pxrReserved__12GfMatrixDataIfLi4ELi4EEixEi(ptr noundef nonnull align 4 dereferenceable(64) %63, i32 noundef 1)
  %65 = getelementptr inbounds float, ptr %64, i64 3
  %66 = load float, ptr %65, align 4
  %67 = fpext float %66 to double
  %68 = fmul double %67, %62
  %69 = fptrunc double %68 to float
  store float %69, ptr %65, align 4
  %70 = load double, ptr %4, align 8
  %71 = getelementptr inbounds nuw %"class.pxrInternal_v0_24__pxrReserved__::GfMatrix4f", ptr %5, i32 0, i32 0
  %72 = call noundef ptr @_ZN32pxrInternal_v0_24__pxrReserved__12GfMatrixDataIfLi4ELi4EEixEi(ptr noundef nonnull align 4 dereferenceable(64) %71, i32 noundef 2)
  %73 = getelementptr inbounds float, ptr %72, i64 0
  %74 = load float, ptr %73, align 4
  %75 = fpext float %74 to double
  %76 = fmul double %75, %70
  %77 = fptrunc double %76 to float
  store float %77, ptr %73, align 4
  %78 = load double, ptr %4, align 8
  %79 = getelementptr inbounds nuw %"class.pxrInternal_v0_24__pxrReserved__::GfMatrix4f", ptr %5, i32 0, i32 0
  %80 = call noundef ptr @_ZN32pxrInternal_v0_24__pxrReserved__12GfMatrixDataIfLi4ELi4EEixEi(ptr noundef nonnull align 4 dereferenceable(64) %79, i32 noundef 2)
  %81 = getelementptr inbounds float, ptr %80, i64 1
  %82 = load float, ptr %81, align 4
  %83 = fpext float %82 to double
  %84 = fmul double %83, %78
  %85 = fptrunc double %84 to float
  store float %85, ptr %81, align 4
  %86 = load double, ptr %4, align 8
  %87 = getelementptr inbounds nuw %"class.pxrInternal_v0_24__pxrReserved__::GfMatrix4f", ptr %5, i32 0, i32 0
  %88 = call noundef ptr @_ZN32pxrInternal_v0_24__pxrReserved__12GfMatrixDataIfLi4ELi4EEixEi(ptr noundef nonnull align 4 dereferenceable(64) %87, i32 noundef 2)
  %89 = getelementptr inbounds float, ptr %88, i64 2
  %90 = load float, ptr %89, align 4
  %91 = fpext float %90 to double
  %92 = fmul double %91, %86
  %93 = fptrunc double %92 to float
  store float %93, ptr %89, align 4
  %94 = load double, ptr %4, align 8
  %95 = getelementptr inbounds nuw %"class.pxrInternal_v0_24__pxrReserved__::GfMatrix4f", ptr %5, i32 0, i32 0
  %96 = call noundef ptr @_ZN32pxrInternal_v0_24__pxrReserved__12GfMatrixDataIfLi4ELi4EEixEi(ptr noundef nonnull align 4 dereferenceable(64) %95, i32 noundef 2)
  %97 = getelementptr inbounds float, ptr %96, i64 3
  %98 = load float, ptr %97, align 4
  %99 = fpext float %98 to double
  %100 = fmul double %99, %94
  %101 = fptrunc double %100 to float
  store float %101, ptr %97, align 4
  %102 = load double, ptr %4, align 8
  %103 = getelementptr inbounds nuw %"class.pxrInternal_v0_24__pxrReserved__::GfMatrix4f", ptr %5, i32 0, i32 0
  %104 = call noundef ptr @_ZN32pxrInternal_v0_24__pxrReserved__12GfMatrixDataIfLi4ELi4EEixEi(ptr noundef nonnull align 4 dereferenceable(64) %103, i32 noundef 3)
  %105 = getelementptr inbounds float, ptr %104, i64 0
  %106 = load float, ptr %105, align 4
  %107 = fpext float %106 to double
  %108 = fmul double %107, %102
  %109 = fptrunc double %108 to float
  store float %109, ptr %105, align 4
  %110 = load double, ptr %4, align 8
  %111 = getelementptr inbounds nuw %"class.pxrInternal_v0_24__pxrReserved__::GfMatrix4f", ptr %5, i32 0, i32 0
  %112 = call noundef ptr @_ZN32pxrInternal_v0_24__pxrReserved__12GfMatrixDataIfLi4ELi4EEixEi(ptr noundef nonnull align 4 dereferenceable(64) %111, i32 noundef 3)
  %113 = getelementptr inbounds float, ptr %112, i64 1
  %114 = load float, ptr %113, align 4
  %115 = fpext float %114 to double
  %116 = fmul double %115, %110
  %117 = fptrunc double %116 to float
  store float %117, ptr %113, align 4
  %118 = load double, ptr %4, align 8
  %119 = getelementptr inbounds nuw %"class.pxrInternal_v0_24__pxrReserved__::GfMatrix4f", ptr %5, i32 0, i32 0
  %120 = call noundef ptr @_ZN32pxrInternal_v0_24__pxrReserved__12GfMatrixDataIfLi4ELi4EEixEi(ptr noundef nonnull align 4 dereferenceable(64) %119, i32 noundef 3)
  %121 = getelementptr inbounds float, ptr %120, i64 2
  %122 = load float, ptr %121, align 4
  %123 = fpext float %122 to double
  %124 = fmul double %123, %118
  %125 = fptrunc double %124 to float
  store float %125, ptr %121, align 4
  %126 = load double, ptr %4, align 8
  %127 = getelementptr inbounds nuw %"class.pxrInternal_v0_24__pxrReserved__::GfMatrix4f", ptr %5, i32 0, i32 0
  %128 = call noundef ptr @_ZN32pxrInternal_v0_24__pxrReserved__12GfMatrixDataIfLi4ELi4EEixEi(ptr noundef nonnull align 4 dereferenceable(64) %127, i32 noundef 3)
  %129 = getelementptr inbounds float, ptr %128, i64 3
  %130 = load float, ptr %129, align 4
  %131 = fpext float %130 to double
  %132 = fmul double %131, %126
  %133 = fptrunc double %132 to float
  store float %133, ptr %129, align 4
  ret ptr %5
}