; Function Attrs: mustprogress nofree norecurse nosync nounwind willreturn memory(argmem: readwrite) uwtable
define noundef nonnull align 4 dereferenceable(64) ptr @_ZN32pxrInternal_v0_24__pxrReserved__10GfMatrix4fmLEd(ptr noundef nonnull returned align 4 dereferenceable(64) %0, double noundef %1) local_unnamed_addr #2 align 2 {
  %3 = load float, ptr %0, align 4
  %4 = fpext float %3 to double
  %5 = fmul double %1, %4
  %6 = fptrunc double %5 to float
  store float %6, ptr %0, align 4
  %7 = getelementptr inbounds nuw i8, ptr %0, i64 4
  %8 = load float, ptr %7, align 4
  %9 = fpext float %8 to double
  %10 = fmul double %1, %9
  %11 = fptrunc double %10 to float
  store float %11, ptr %7, align 4
  %12 = getelementptr inbounds nuw i8, ptr %0, i64 8
  %13 = load float, ptr %12, align 4
  %14 = fpext float %13 to double
  %15 = fmul double %1, %14
  %16 = fptrunc double %15 to float
  store float %16, ptr %12, align 4
  %17 = getelementptr inbounds nuw i8, ptr %0, i64 12
  %18 = load float, ptr %17, align 4
  %19 = fpext float %18 to double
  %20 = fmul double %1, %19
  %21 = fptrunc double %20 to float
  store float %21, ptr %17, align 4
  %22 = getelementptr inbounds nuw i8, ptr %0, i64 16
  %23 = load float, ptr %22, align 4
  %24 = fpext float %23 to double
  %25 = fmul double %1, %24
  %26 = fptrunc double %25 to float
  store float %26, ptr %22, align 4
  %27 = getelementptr inbounds nuw i8, ptr %0, i64 20
  %28 = load float, ptr %27, align 4
  %29 = fpext float %28 to double
  %30 = fmul double %1, %29
  %31 = fptrunc double %30 to float
  store float %31, ptr %27, align 4
  %32 = getelementptr inbounds nuw i8, ptr %0, i64 24
  %33 = load float, ptr %32, align 4
  %34 = fpext float %33 to double
  %35 = fmul double %1, %34
  %36 = fptrunc double %35 to float
  store float %36, ptr %32, align 4
  %37 = getelementptr inbounds nuw i8, ptr %0, i64 28
  %38 = load float, ptr %37, align 4
  %39 = fpext float %38 to double
  %40 = fmul double %1, %39
  %41 = fptrunc double %40 to float
  store float %41, ptr %37, align 4
  %42 = getelementptr inbounds nuw i8, ptr %0, i64 32
  %43 = load float, ptr %42, align 4
  %44 = fpext float %43 to double
  %45 = fmul double %1, %44
  %46 = fptrunc double %45 to float
  store float %46, ptr %42, align 4
  %47 = getelementptr inbounds nuw i8, ptr %0, i64 36
  %48 = load float, ptr %47, align 4
  %49 = fpext float %48 to double
  %50 = fmul double %1, %49
  %51 = fptrunc double %50 to float
  store float %51, ptr %47, align 4
  %52 = getelementptr inbounds nuw i8, ptr %0, i64 40
  %53 = load float, ptr %52, align 4
  %54 = fpext float %53 to double
  %55 = fmul double %1, %54
  %56 = fptrunc double %55 to float
  store float %56, ptr %52, align 4
  %57 = getelementptr inbounds nuw i8, ptr %0, i64 44
  %58 = load float, ptr %57, align 4
  %59 = fpext float %58 to double
  %60 = fmul double %1, %59
  %61 = fptrunc double %60 to float
  store float %61, ptr %57, align 4
  %62 = getelementptr inbounds nuw i8, ptr %0, i64 48
  %63 = load float, ptr %62, align 4
  %64 = fpext float %63 to double
  %65 = fmul double %1, %64
  %66 = fptrunc double %65 to float
  store float %66, ptr %62, align 4
  %67 = getelementptr inbounds nuw i8, ptr %0, i64 52
  %68 = load float, ptr %67, align 4
  %69 = fpext float %68 to double
  %70 = fmul double %1, %69
  %71 = fptrunc double %70 to float
  store float %71, ptr %67, align 4
  %72 = getelementptr inbounds nuw i8, ptr %0, i64 56
  %73 = load float, ptr %72, align 4
  %74 = fpext float %73 to double
  %75 = fmul double %1, %74
  %76 = fptrunc double %75 to float
  store float %76, ptr %72, align 4
  %77 = getelementptr inbounds nuw i8, ptr %0, i64 60
  %78 = load float, ptr %77, align 4
  %79 = fpext float %78 to double
  %80 = fmul double %1, %79
  %81 = fptrunc double %80 to float
  store float %81, ptr %77, align 4
  ret ptr %0
}